target datalayout = "e-m:e-p270:32:32-p271:32:32-p272:64:64-i64:64-i128:128-f80:128-n8:16:32:64-S128"
target triple = "x86_64-pc-linux-gnu"

%"struct.std::__cxx11::basic_string<char>::_Alloc_hider" = type { ptr }
%"class.std::__cxx11::basic_string" = type { %"struct.std::__cxx11::basic_string<char>::_Alloc_hider", i64, %union.anon }
%union.anon = type { i64, [8 x i8] }

@_ZN3nix6loggerE = external global ptr, align 8
@.str = private unnamed_addr constant [23 x i8] c"creating a new session\00", align 1
@_ZTIN3nix8SysErrorE = linkonce_odr constant { ptr, ptr, ptr } { ptr getelementptr inbounds (ptr, ptr @_ZTVN10__cxxabiv120__si_class_type_infoE, i64 2), ptr @_ZTSN3nix8SysErrorE, ptr @_ZTIN3nix11SystemErrorE }, comdat, align 8
@.str.3 = private unnamed_addr constant [30 x i8] c"cannot dup stderr into stdout\00", align 1
@.str.4 = private unnamed_addr constant [18 x i8] c"cannot open '%1%'\00", align 1
@.str.5 = private unnamed_addr constant [34 x i8] c"cannot dup null device into stdin\00", align 1

; Function Attrs: mustprogress nounwind uwtable
define linkonce_odr noundef ptr @_ZNKSt7__cxx1112basic_stringIcSt11char_traitsIcESaIcEE7_M_dataEv(ptr noundef nonnull align 8 dereferenceable(32) %0) #2 comdat align 2 {
  %2 = alloca ptr, align 8
  store ptr %0, ptr %2, align 8
  %3 = load ptr, ptr %2, align 8
  %4 = getelementptr inbounds %"class.std::__cxx11::basic_string", ptr %3, i32 0, i32 0
  %5 = getelementptr inbounds %"struct.std::__cxx11::basic_string<char>::_Alloc_hider", ptr %4, i32 0, i32 0
  %6 = load ptr, ptr %5, align 8
  ret ptr %6
}

; Function Attrs: mustprogress nounwind uwtable
define linkonce_odr noundef ptr @_ZNKSt7__cxx1112basic_stringIcSt11char_traitsIcESaIcEE5c_strEv(ptr noundef nonnull align 8 dereferenceable(32) %0) #2 comdat align 2 {
  %2 = alloca ptr, align 8
  store ptr %0, ptr %2, align 8
  %3 = load ptr, ptr %2, align 8
  %4 = call noundef ptr @_ZNKSt7__cxx1112basic_stringIcSt11char_traitsIcESaIcEE7_M_dataEv(ptr noundef nonnull align 8 dereferenceable(32) %3)
  ret ptr %4
}

; Function Attrs: mustprogress uwtable
define void @_ZN3nix15commonChildInitEv() #3 personality ptr @__gxx_personality_v0 {
  %1 = alloca ptr, align 8
  %2 = alloca i32, align 4
  %3 = alloca i32, align 4
  %4 = call noundef ptr @_ZN3nix16makeSimpleLoggerEb(i1 noundef zeroext true)
  store ptr %4, ptr @_ZN3nix6loggerE, align 8
  call void @_ZN3nix21restoreProcessContextEb(i1 noundef zeroext false)
  %5 = call i32 @setsid() #1
  %6 = icmp eq i32 %5, -1
  br i1 %6, label %7, label %14

7:                                                ; preds = %0
  %8 = call ptr @__cxa_allocate_exception(i64 384) #1
  invoke void @_ZN3nix8SysErrorC2IJA23_cEEEDpRKT_(ptr noundef nonnull align 8 dereferenceable(380) %8, ptr noundef nonnull align 1 dereferenceable(23) @.str)
          to label %9 unwind label %10

9:                                                ; preds = %7
  call void @__cxa_throw(ptr %8, ptr @_ZTIN3nix8SysErrorE, ptr @_ZN3nix8SysErrorD2Ev) #16
  unreachable

10:                                               ; preds = %7
  %11 = landingpad { ptr, i32 }
          cleanup
  %12 = extractvalue { ptr, i32 } %11, 0
  store ptr %12, ptr %1, align 8
  %13 = extractvalue { ptr, i32 } %11, 1
  store i32 %13, ptr %2, align 4
  call void @__cxa_free_exception(ptr %8) #1
  br label %50

14:                                               ; preds = %0
  %15 = call i32 @dup2(i32 noundef 2, i32 noundef 1) #1
  %16 = icmp eq i32 %15, -1
  br i1 %16, label %17, label %24

17:                                               ; preds = %14
  %18 = call ptr @__cxa_allocate_exception(i64 384) #1
  invoke void @_ZN3nix8SysErrorC2IJA30_cEEEDpRKT_(ptr noundef nonnull align 8 dereferenceable(380) %18, ptr noundef nonnull align 1 dereferenceable(30) @.str.3)
          to label %19 unwind label %20

19:                                               ; preds = %17
  call void @__cxa_throw(ptr %18, ptr @_ZTIN3nix8SysErrorE, ptr @_ZN3nix8SysErrorD2Ev) #16
  unreachable

20:                                               ; preds = %17
  %21 = landingpad { ptr, i32 }
          cleanup
  %22 = extractvalue { ptr, i32 } %21, 0
  store ptr %22, ptr %1, align 8
  %23 = extractvalue { ptr, i32 } %21, 1
  store i32 %23, ptr %2, align 4
  call void @__cxa_free_exception(ptr %18) #1
  br label %50

24:                                               ; preds = %14
  %25 = call noundef ptr @_ZNKSt7__cxx1112basic_stringIcSt11char_traitsIcESaIcEE5c_strEv(ptr noundef nonnull align 8 dereferenceable(32) @_ZZN3nix15commonChildInitEvE14pathNullDeviceB5cxx11) #1
  %26 = call i32 (ptr, i32, ...) @open(ptr noundef %25, i32 noundef 2)
  store i32 %26, ptr %3, align 4
  %27 = load i32, ptr %3, align 4
  %28 = icmp eq i32 %27, -1
  br i1 %28, label %29, label %36

29:                                               ; preds = %24
  %30 = call ptr @__cxa_allocate_exception(i64 384) #1
  invoke void @_ZN3nix8SysErrorC2IJA18_cNSt7__cxx1112basic_stringIcSt11char_traitsIcESaIcEEEEEEDpRKT_(ptr noundef nonnull align 8 dereferenceable(380) %30, ptr noundef nonnull align 1 dereferenceable(18) @.str.4, ptr noundef nonnull align 8 dereferenceable(32) @_ZZN3nix15commonChildInitEvE14pathNullDeviceB5cxx11)
          to label %31 unwind label %32

31:                                               ; preds = %29
  call void @__cxa_throw(ptr %30, ptr @_ZTIN3nix8SysErrorE, ptr @_ZN3nix8SysErrorD2Ev) #16
  unreachable

32:                                               ; preds = %29
  %33 = landingpad { ptr, i32 }
          cleanup
  %34 = extractvalue { ptr, i32 } %33, 0
  store ptr %34, ptr %1, align 8
  %35 = extractvalue { ptr, i32 } %33, 1
  store i32 %35, ptr %2, align 4
  call void @__cxa_free_exception(ptr %30) #1
  br label %50

36:                                               ; preds = %24
  %37 = load i32, ptr %3, align 4
  %38 = call i32 @dup2(i32 noundef %37, i32 noundef 0) #1
  %39 = icmp eq i32 %38, -1
  br i1 %39, label %40, label %47

40:                                               ; preds = %36
  %41 = call ptr @__cxa_allocate_exception(i64 384) #1
  invoke void @_ZN3nix8SysErrorC2IJA34_cEEEDpRKT_(ptr noundef nonnull align 8 dereferenceable(380) %41, ptr noundef nonnull align 1 dereferenceable(34) @.str.5)
          to label %42 unwind label %43

42:                                               ; preds = %40
  call void @__cxa_throw(ptr %41, ptr @_ZTIN3nix8SysErrorE, ptr @_ZN3nix8SysErrorD2Ev) #16
  unreachable

43:                                               ; preds = %40
  %44 = landingpad { ptr, i32 }
          cleanup
  %45 = extractvalue { ptr, i32 } %44, 0
  store ptr %45, ptr %1, align 8
  %46 = extractvalue { ptr, i32 } %44, 1
  store i32 %46, ptr %2, align 4
  call void @__cxa_free_exception(ptr %41) #1
  br label %50

47:                                               ; preds = %36
  %48 = load i32, ptr %3, align 4
  %49 = call i32 @close(i32 noundef %48)
  ret void

50:                                               ; preds = %43, %32, %20, %10
  %51 = load ptr, ptr %1, align 8
  %52 = load i32, ptr %2, align 4
  %53 = insertvalue { ptr, i32 } poison, ptr %51, 0
  %54 = insertvalue { ptr, i32 } %53, i32 %52, 1
  resume { ptr, i32 } %54
}