; Function Attrs: mustprogress uwtable
define void @_ZN3nix15commonChildInitEv() local_unnamed_addr #2 personality ptr @__gxx_personality_v0 {
  %1 = tail call noundef ptr @_ZN3nix16makeSimpleLoggerEb(i1 noundef zeroext true)
  store ptr %1, ptr @_ZN3nix6loggerE, align 8
  tail call void @_ZN3nix21restoreProcessContextEb(i1 noundef zeroext false)
  %2 = tail call i32 @setsid() #21
  %3 = icmp eq i32 %2, -1
  br i1 %3, label %4, label %9

4:                                                ; preds = %0
  %5 = tail call ptr @__cxa_allocate_exception(i64 384) #21
  invoke void @_ZN3nix8SysErrorC2IJA23_cEEEDpRKT_(ptr noundef nonnull align 8 dereferenceable(380) %5, ptr noundef nonnull align 1 dereferenceable(23) @.str)
          to label %6 unwind label %7

6:                                                ; preds = %4
  tail call void @__cxa_throw(ptr nonnull %5, ptr nonnull @_ZTIN3nix8SysErrorE, ptr nonnull @_ZN3nix8SysErrorD2Ev) #22
  unreachable

7:                                                ; preds = %4
  %8 = landingpad { ptr, i32 }
          cleanup
  br label %35

9:                                                ; preds = %0
  %10 = tail call i32 @dup2(i32 noundef 2, i32 noundef 1) #21
  %11 = icmp eq i32 %10, -1
  br i1 %11, label %12, label %17

12:                                               ; preds = %9
  %13 = tail call ptr @__cxa_allocate_exception(i64 384) #21
  invoke void @_ZN3nix8SysErrorC2IJA30_cEEEDpRKT_(ptr noundef nonnull align 8 dereferenceable(380) %13, ptr noundef nonnull align 1 dereferenceable(30) @.str.3)
          to label %14 unwind label %15

14:                                               ; preds = %12
  tail call void @__cxa_throw(ptr nonnull %13, ptr nonnull @_ZTIN3nix8SysErrorE, ptr nonnull @_ZN3nix8SysErrorD2Ev) #22
  unreachable

15:                                               ; preds = %12
  %16 = landingpad { ptr, i32 }
          cleanup
  br label %35

17:                                               ; preds = %9
  %18 = tail call i32 (ptr, i32, ...) @open(ptr noundef nonnull getelementptr inbounds ({ %"struct.std::__cxx11::basic_string<char>::_Alloc_hider", i64, { [16 x i8] } }, ptr @_ZZN3nix15commonChildInitEvE14pathNullDeviceB5cxx11, i64 0, i32 2, i32 0, i64 0), i32 noundef 2)
  %19 = icmp eq i32 %18, -1
  br i1 %19, label %20, label %25

20:                                               ; preds = %17
  %21 = tail call ptr @__cxa_allocate_exception(i64 384) #21
  invoke void @_ZN3nix8SysErrorC2IJA18_cNSt7__cxx1112basic_stringIcSt11char_traitsIcESaIcEEEEEEDpRKT_(ptr noundef nonnull align 8 dereferenceable(380) %21, ptr noundef nonnull align 1 dereferenceable(18) @.str.4, ptr noundef nonnull align 8 dereferenceable(32) @_ZZN3nix15commonChildInitEvE14pathNullDeviceB5cxx11)
          to label %22 unwind label %23

22:                                               ; preds = %20
  tail call void @__cxa_throw(ptr nonnull %21, ptr nonnull @_ZTIN3nix8SysErrorE, ptr nonnull @_ZN3nix8SysErrorD2Ev) #22
  unreachable

23:                                               ; preds = %20
  %24 = landingpad { ptr, i32 }
          cleanup
  br label %35

25:                                               ; preds = %17
  %26 = tail call i32 @dup2(i32 noundef %18, i32 noundef 0) #21
  %27 = icmp eq i32 %26, -1
  br i1 %27, label %28, label %33

28:                                               ; preds = %25
  %29 = tail call ptr @__cxa_allocate_exception(i64 384) #21
  invoke void @_ZN3nix8SysErrorC2IJA34_cEEEDpRKT_(ptr noundef nonnull align 8 dereferenceable(380) %29, ptr noundef nonnull align 1 dereferenceable(34) @.str.5)
          to label %30 unwind label %31

30:                                               ; preds = %28
  tail call void @__cxa_throw(ptr nonnull %29, ptr nonnull @_ZTIN3nix8SysErrorE, ptr nonnull @_ZN3nix8SysErrorD2Ev) #22
  unreachable

31:                                               ; preds = %28
  %32 = landingpad { ptr, i32 }
          cleanup
  br label %35

33:                                               ; preds = %25
  %34 = tail call i32 @close(i32 noundef %18)
  ret void

35:                                               ; preds = %31, %23, %15, %7
  %.sink = phi ptr [ %29, %31 ], [ %21, %23 ], [ %13, %15 ], [ %5, %7 ]
  %.pn = phi { ptr, i32 } [ %32, %31 ], [ %24, %23 ], [ %16, %15 ], [ %8, %7 ]
  tail call void @__cxa_free_exception(ptr %.sink) #21
  resume { ptr, i32 } %.pn
}